target datalayout = "e-m:e-p270:32:32-p271:32:32-p272:64:64-i64:64-i128:128-f80:128-n8:16:32:64-S128"
target triple = "x86_64-pc-linux-gnu"

@.str.198 = private unnamed_addr constant [4 x i8] c"Dot\00", align 1
@.str.200 = private unnamed_addr constant [6 x i8] c"Cross\00", align 1
@.str.201 = private unnamed_addr constant [35 x i8] c"%s is not a valid method of vector\00", align 1

; Function Attrs: mustprogress uwtable
define internal noundef i32 @_ZL16lua_vector_crossP9lua_State(ptr noundef %0) #4 {
  %2 = alloca ptr, align 8
  %3 = alloca ptr, align 8
  %4 = alloca ptr, align 8
  store ptr %0, ptr %2, align 8
  %5 = load ptr, ptr %2, align 8
  %6 = call noundef ptr @_Z16luaL_checkvectorP9lua_Statei(ptr noundef %5, i32 noundef 1)
  store ptr %6, ptr %3, align 8
  %7 = load ptr, ptr %2, align 8
  %8 = call noundef ptr @_Z16luaL_checkvectorP9lua_Statei(ptr noundef %7, i32 noundef 2)
  store ptr %8, ptr %4, align 8
  %9 = load ptr, ptr %2, align 8
  %10 = load ptr, ptr %3, align 8
  %11 = getelementptr inbounds float, ptr %10, i64 1
  %12 = load float, ptr %11, align 4
  %13 = load ptr, ptr %4, align 8
  %14 = getelementptr inbounds float, ptr %13, i64 2
  %15 = load float, ptr %14, align 4
  %16 = load ptr, ptr %3, align 8
  %17 = getelementptr inbounds float, ptr %16, i64 2
  %18 = load float, ptr %17, align 4
  %19 = load ptr, ptr %4, align 8
  %20 = getelementptr inbounds float, ptr %19, i64 1
  %21 = load float, ptr %20, align 4
  %22 = fmul float %18, %21
  %23 = fneg float %22
  %24 = call float @llvm.fmuladd.f32(float %12, float %15, float %23)
  %25 = load ptr, ptr %3, align 8
  %26 = getelementptr inbounds float, ptr %25, i64 2
  %27 = load float, ptr %26, align 4
  %28 = load ptr, ptr %4, align 8
  %29 = getelementptr inbounds float, ptr %28, i64 0
  %30 = load float, ptr %29, align 4
  %31 = load ptr, ptr %3, align 8
  %32 = getelementptr inbounds float, ptr %31, i64 0
  %33 = load float, ptr %32, align 4
  %34 = load ptr, ptr %4, align 8
  %35 = getelementptr inbounds float, ptr %34, i64 2
  %36 = load float, ptr %35, align 4
  %37 = fmul float %33, %36
  %38 = fneg float %37
  %39 = call float @llvm.fmuladd.f32(float %27, float %30, float %38)
  %40 = load ptr, ptr %3, align 8
  %41 = getelementptr inbounds float, ptr %40, i64 0
  %42 = load float, ptr %41, align 4
  %43 = load ptr, ptr %4, align 8
  %44 = getelementptr inbounds float, ptr %43, i64 1
  %45 = load float, ptr %44, align 4
  %46 = load ptr, ptr %3, align 8
  %47 = getelementptr inbounds float, ptr %46, i64 1
  %48 = load float, ptr %47, align 4
  %49 = load ptr, ptr %4, align 8
  %50 = getelementptr inbounds float, ptr %49, i64 0
  %51 = load float, ptr %50, align 4
  %52 = fmul float %48, %51
  %53 = fneg float %52
  %54 = call float @llvm.fmuladd.f32(float %42, float %45, float %53)
  call void @_Z14lua_pushvectorP9lua_Statefff(ptr noundef %9, float noundef %24, float noundef %39, float noundef %54)
  ret i32 1
}

; Function Attrs: mustprogress uwtable
define internal noundef i32 @_ZL14lua_vector_dotP9lua_State(ptr noundef %0) #4 {
  %2 = alloca ptr, align 8
  %3 = alloca ptr, align 8
  %4 = alloca ptr, align 8
  store ptr %0, ptr %2, align 8
  %5 = load ptr, ptr %2, align 8
  %6 = call noundef ptr @_Z16luaL_checkvectorP9lua_Statei(ptr noundef %5, i32 noundef 1)
  store ptr %6, ptr %3, align 8
  %7 = load ptr, ptr %2, align 8
  %8 = call noundef ptr @_Z16luaL_checkvectorP9lua_Statei(ptr noundef %7, i32 noundef 2)
  store ptr %8, ptr %4, align 8
  %9 = load ptr, ptr %2, align 8
  %10 = load ptr, ptr %3, align 8
  %11 = getelementptr inbounds float, ptr %10, i64 0
  %12 = load float, ptr %11, align 4
  %13 = load ptr, ptr %4, align 8
  %14 = getelementptr inbounds float, ptr %13, i64 0
  %15 = load float, ptr %14, align 4
  %16 = load ptr, ptr %3, align 8
  %17 = getelementptr inbounds float, ptr %16, i64 1
  %18 = load float, ptr %17, align 4
  %19 = load ptr, ptr %4, align 8
  %20 = getelementptr inbounds float, ptr %19, i64 1
  %21 = load float, ptr %20, align 4
  %22 = fmul float %18, %21
  %23 = call float @llvm.fmuladd.f32(float %12, float %15, float %22)
  %24 = load ptr, ptr %3, align 8
  %25 = getelementptr inbounds float, ptr %24, i64 2
  %26 = load float, ptr %25, align 4
  %27 = load ptr, ptr %4, align 8
  %28 = getelementptr inbounds float, ptr %27, i64 2
  %29 = load float, ptr %28, align 4
  %30 = call float @llvm.fmuladd.f32(float %26, float %29, float %23)
  %31 = fpext float %30 to double
  call void @_Z14lua_pushnumberP9lua_Stated(ptr noundef %9, double noundef %31)
  ret i32 1
}

; Function Attrs: mustprogress uwtable
define internal noundef i32 @_ZL19lua_vector_namecallP9lua_State(ptr noundef %0) #4 {
  %2 = alloca i32, align 4
  %3 = alloca ptr, align 8
  %4 = alloca ptr, align 8
  store ptr %0, ptr %3, align 8
  %5 = load ptr, ptr %3, align 8
  %6 = call noundef ptr @_Z16lua_namecallatomP9lua_StatePi(ptr noundef %5, ptr noundef null)
  store ptr %6, ptr %4, align 8
  %7 = load ptr, ptr %4, align 8
  %8 = icmp ne ptr %7, null
  br i1 %8, label %9, label %24

9:                                                ; preds = %1
  %10 = load ptr, ptr %4, align 8
  %11 = call i32 @strcmp(ptr noundef %10, ptr noundef @.str.198) #18
  %12 = icmp eq i32 %11, 0
  br i1 %12, label %13, label %16

13:                                               ; preds = %9
  %14 = load ptr, ptr %3, align 8
  %15 = call noundef i32 @_ZL14lua_vector_dotP9lua_State(ptr noundef %14)
  store i32 %15, ptr %2, align 4
  br label %28

16:                                               ; preds = %9
  %17 = load ptr, ptr %4, align 8
  %18 = call i32 @strcmp(ptr noundef %17, ptr noundef @.str.200) #18
  %19 = icmp eq i32 %18, 0
  br i1 %19, label %20, label %23

20:                                               ; preds = %16
  %21 = load ptr, ptr %3, align 8
  %22 = call noundef i32 @_ZL16lua_vector_crossP9lua_State(ptr noundef %21)
  store i32 %22, ptr %2, align 4
  br label %28

23:                                               ; preds = %16
  br label %24

24:                                               ; preds = %23, %1
  %25 = load ptr, ptr %3, align 8
  %26 = load ptr, ptr %3, align 8
  %27 = call noundef ptr @_Z17luaL_checklstringP9lua_StateiPm(ptr noundef %26, i32 noundef 1, ptr noundef null)
  call void (ptr, ptr, ...) @_Z11luaL_errorLP9lua_StatePKcz(ptr noundef %25, ptr noundef @.str.201, ptr noundef %27) #19
  unreachable

28:                                               ; preds = %20, %13
  %29 = load i32, ptr %2, align 4
  ret i32 %29
}