; Function Attrs: mustprogress uwtable
define internal noundef i32 @_ZL19lua_vector_namecallP9lua_State(ptr noundef %0) #4 {
  %2 = tail call noundef ptr @_Z16lua_namecallatomP9lua_StatePi(ptr noundef %0, ptr noundef null)
  %.not = icmp eq ptr %2, null
  br i1 %.not, label %48, label %3

3:                                                ; preds = %1
  %4 = tail call i32 @strcmp(ptr noundef nonnull dereferenceable(1) %2, ptr noundef nonnull dereferenceable(4) @.str.198) #33
  %5 = icmp eq i32 %4, 0
  br i1 %5, label %6, label %23

6:                                                ; preds = %3
  %7 = tail call noundef ptr @_Z16luaL_checkvectorP9lua_Statei(ptr noundef %0, i32 noundef 1)
  %8 = tail call noundef ptr @_Z16luaL_checkvectorP9lua_Statei(ptr noundef %0, i32 noundef 2)
  %9 = load float, ptr %7, align 4
  %10 = load float, ptr %8, align 4
  %11 = getelementptr inbounds i8, ptr %7, i64 4
  %12 = load float, ptr %11, align 4
  %13 = getelementptr inbounds i8, ptr %8, i64 4
  %14 = load float, ptr %13, align 4
  %15 = fmul float %12, %14
  %16 = tail call float @llvm.fmuladd.f32(float %9, float %10, float %15)
  %17 = getelementptr inbounds i8, ptr %7, i64 8
  %18 = load float, ptr %17, align 4
  %19 = getelementptr inbounds i8, ptr %8, i64 8
  %20 = load float, ptr %19, align 4
  %21 = tail call float @llvm.fmuladd.f32(float %18, float %20, float %16)
  %22 = fpext float %21 to double
  tail call void @_Z14lua_pushnumberP9lua_Stated(ptr noundef %0, double noundef %22)
  br label %50

23:                                               ; preds = %3
  %24 = tail call i32 @strcmp(ptr noundef nonnull dereferenceable(1) %2, ptr noundef nonnull dereferenceable(6) @.str.200) #33
  %25 = icmp eq i32 %24, 0
  br i1 %25, label %26, label %48

26:                                               ; preds = %23
  %27 = tail call noundef ptr @_Z16luaL_checkvectorP9lua_Statei(ptr noundef %0, i32 noundef 1)
  %28 = tail call noundef ptr @_Z16luaL_checkvectorP9lua_Statei(ptr noundef %0, i32 noundef 2)
  %29 = getelementptr inbounds i8, ptr %27, i64 4
  %30 = load float, ptr %29, align 4
  %31 = getelementptr inbounds i8, ptr %28, i64 8
  %32 = load float, ptr %31, align 4
  %33 = getelementptr inbounds i8, ptr %27, i64 8
  %34 = load float, ptr %33, align 4
  %35 = getelementptr inbounds i8, ptr %28, i64 4
  %36 = load float, ptr %35, align 4
  %37 = fneg float %34
  %38 = fmul float %36, %37
  %39 = tail call float @llvm.fmuladd.f32(float %30, float %32, float %38)
  %40 = load float, ptr %28, align 4
  %41 = load float, ptr %27, align 4
  %42 = fneg float %41
  %43 = fmul float %32, %42
  %44 = tail call float @llvm.fmuladd.f32(float %34, float %40, float %43)
  %45 = fneg float %30
  %46 = fmul float %40, %45
  %47 = tail call float @llvm.fmuladd.f32(float %41, float %36, float %46)
  tail call void @_Z14lua_pushvectorP9lua_Statefff(ptr noundef %0, float noundef %39, float noundef %44, float noundef %47)
  br label %50

48:                                               ; preds = %23, %1
  %49 = tail call noundef ptr @_Z17luaL_checklstringP9lua_StateiPm(ptr noundef %0, i32 noundef 1, ptr noundef null)
  tail call void (ptr, ptr, ...) @_Z11luaL_errorLP9lua_StatePKcz(ptr noundef %0, ptr noundef nonnull @.str.201, ptr noundef %49) #34
  unreachable

50:                                               ; preds = %26, %6
  ret i32 1
}